target datalayout = "e-m:e-p270:32:32-p271:32:32-p272:64:64-i64:64-i128:128-f80:128-n8:16:32:64-S128"
target triple = "x86_64-pc-linux-gnu"

%"class.btSoftBody::DeformableRigidContact" = type { %"struct.btSoftBody::sCti", %class.btMatrix3x3, %class.btVector3, float, float, float, %class.btMatrix3x3, [4 x i8], %struct.btMultiBodyJacobianData, %struct.btMultiBodyJacobianData, %struct.btMultiBodyJacobianData, %class.btVector3, %class.btVector3 }
%"struct.btSoftBody::sCti" = type <{ ptr, %class.btVector3, %class.btVector3, float, %class.btVector3, [4 x i8] }>
%class.btMatrix3x3 = type { [3 x %class.btVector3] }
%struct.btMultiBodyJacobianData = type <{ %class.btAlignedObjectArray, %class.btAlignedObjectArray, %class.btAlignedObjectArray, %class.btAlignedObjectArray, %class.btAlignedObjectArray.0, %class.btAlignedObjectArray.2, ptr, i32, [4 x i8] }>
%class.btAlignedObjectArray = type <{ [4 x i8], i32, i32, [4 x i8], ptr, i8, [7 x i8] }>
%class.btAlignedObjectArray.0 = type <{ [4 x i8], i32, i32, [4 x i8], ptr, i8, [7 x i8] }>
%class.btAlignedObjectArray.2 = type <{ [4 x i8], i32, i32, [4 x i8], ptr, i8, [7 x i8] }>
%class.btVector3 = type { [4 x float] }
%class.btDeformableContactConstraint = type { ptr, i8, ptr, %class.btVector3 }
%class.btDeformableRigidContactConstraint = type { %class.btDeformableContactConstraint, %class.btVector3, %class.btVector3, float, float, i8, ptr }
%class.btDeformableFaceRigidContactConstraint = type <{ %class.btDeformableRigidContactConstraint, ptr, i8, [7 x i8] }>
%"class.btSoftBody::DeformableFaceRigidContact" = type { %"class.btSoftBody::DeformableRigidContact", ptr, %class.btVector3, %class.btVector3, %class.btVector3 }

; Function Attrs: inlinehint mustprogress nounwind uwtable
define linkonce_odr dso_local void @_ZN9btVector38setValueERKfS1_S1_(ptr noundef nonnull align 4 dereferenceable(16) %0, ptr noundef nonnull align 4 dereferenceable(4) %1, ptr noundef nonnull align 4 dereferenceable(4) %2, ptr noundef nonnull align 4 dereferenceable(4) %3) #5 comdat align 2 {
  %5 = alloca ptr, align 8
  %6 = alloca ptr, align 8
  %7 = alloca ptr, align 8
  %8 = alloca ptr, align 8
  store ptr %0, ptr %5, align 8, !tbaa !27
  store ptr %1, ptr %6, align 8, !tbaa !56
  store ptr %2, ptr %7, align 8, !tbaa !56
  store ptr %3, ptr %8, align 8, !tbaa !56
  %9 = load ptr, ptr %5, align 8
  %10 = load ptr, ptr %6, align 8, !tbaa !56
  %11 = load float, ptr %10, align 4, !tbaa !36
  %12 = getelementptr inbounds nuw %class.btVector3, ptr %9, i32 0, i32 0
  %13 = getelementptr inbounds [4 x float], ptr %12, i64 0, i64 0
  store float %11, ptr %13, align 4, !tbaa !36
  %14 = load ptr, ptr %7, align 8, !tbaa !56
  %15 = load float, ptr %14, align 4, !tbaa !36
  %16 = getelementptr inbounds nuw %class.btVector3, ptr %9, i32 0, i32 0
  %17 = getelementptr inbounds [4 x float], ptr %16, i64 0, i64 1
  store float %15, ptr %17, align 4, !tbaa !36
  %18 = load ptr, ptr %8, align 8, !tbaa !56
  %19 = load float, ptr %18, align 4, !tbaa !36
  %20 = getelementptr inbounds nuw %class.btVector3, ptr %9, i32 0, i32 0
  %21 = getelementptr inbounds [4 x float], ptr %20, i64 0, i64 2
  store float %19, ptr %21, align 4, !tbaa !36
  %22 = getelementptr inbounds nuw %class.btVector3, ptr %9, i32 0, i32 0
  %23 = getelementptr inbounds [4 x float], ptr %22, i64 0, i64 3
  store float 0.000000e+00, ptr %23, align 4, !tbaa !36
  ret void
}

; Function Attrs: mustprogress nounwind uwtable
define linkonce_odr dso_local void @_ZN29btDeformableContactConstraintD2Ev(ptr noundef nonnull align 8 dereferenceable(40) %0) unnamed_addr #1 comdat align 2 {
  %2 = alloca ptr, align 8
  store ptr %0, ptr %2, align 8, !tbaa !25
  ret void
}

; Function Attrs: mustprogress uwtable
define linkonce_odr dso_local void @_ZN9btVector37setZeroEv(ptr noundef nonnull align 4 dereferenceable(16) %0) #2 comdat align 2 {
  %2 = alloca ptr, align 8
  %3 = alloca float, align 4
  %4 = alloca float, align 4
  %5 = alloca float, align 4
  store ptr %0, ptr %2, align 8, !tbaa !27
  %6 = load ptr, ptr %2, align 8
  call void @llvm.lifetime.start.p0(i64 4, ptr %3) #13
  store float 0.000000e+00, ptr %3, align 4, !tbaa !36
  call void @llvm.lifetime.start.p0(i64 4, ptr %4) #13
  store float 0.000000e+00, ptr %4, align 4, !tbaa !36
  call void @llvm.lifetime.start.p0(i64 4, ptr %5) #13
  store float 0.000000e+00, ptr %5, align 4, !tbaa !36
  call void @_ZN9btVector38setValueERKfS1_S1_(ptr noundef nonnull align 4 dereferenceable(16) %6, ptr noundef nonnull align 4 dereferenceable(4) %3, ptr noundef nonnull align 4 dereferenceable(4) %4, ptr noundef nonnull align 4 dereferenceable(4) %5)
  call void @llvm.lifetime.end.p0(i64 4, ptr %5) #13
  call void @llvm.lifetime.end.p0(i64 4, ptr %4) #13
  call void @llvm.lifetime.end.p0(i64 4, ptr %3) #13
  ret void
}

; Function Attrs: inlinehint mustprogress nounwind uwtable
define linkonce_odr dso_local void @_ZN9btVector3C2Ev(ptr noundef nonnull align 4 dereferenceable(16) %0) unnamed_addr #5 comdat align 2 {
  %2 = alloca ptr, align 8
  store ptr %0, ptr %2, align 8, !tbaa !27
  ret void
}

; Function Attrs: mustprogress nounwind uwtable
define linkonce_odr dso_local void @_ZN29btDeformableContactConstraintC2ERK9btVector3RK19btContactSolverInfo(ptr noundef nonnull align 8 dereferenceable(40) %0, ptr noundef nonnull align 4 dereferenceable(16) %1, ptr noundef nonnull align 4 dereferenceable(128) %2) unnamed_addr #1 comdat align 2 {
  %4 = alloca ptr, align 8
  %5 = alloca ptr, align 8
  %6 = alloca ptr, align 8
  store ptr %0, ptr %4, align 8, !tbaa !25
  store ptr %1, ptr %5, align 8, !tbaa !27
  store ptr %2, ptr %6, align 8, !tbaa !16
  %7 = load ptr, ptr %4, align 8
  store ptr getelementptr inbounds inrange(-16, 64) ({ [10 x ptr] }, ptr @_ZTV29btDeformableContactConstraint, i32 0, i32 0, i32 2), ptr %7, align 8, !tbaa !18
  %8 = getelementptr inbounds nuw %class.btDeformableContactConstraint, ptr %7, i32 0, i32 1
  store i8 0, ptr %8, align 8, !tbaa !29
  %9 = getelementptr inbounds nuw %class.btDeformableContactConstraint, ptr %7, i32 0, i32 2
  %10 = load ptr, ptr %6, align 8, !tbaa !16
  store ptr %10, ptr %9, align 8, !tbaa !30
  %11 = getelementptr inbounds nuw %class.btDeformableContactConstraint, ptr %7, i32 0, i32 3
  %12 = load ptr, ptr %5, align 8, !tbaa !27
  call void @llvm.memcpy.p0.p0.i64(ptr align 8 %11, ptr align 4 %12, i64 16, i1 false), !tbaa.struct !31
  ret void
}

; Function Attrs: mustprogress uwtable
define dso_local void @_ZN34btDeformableRigidContactConstraintC2ERKN10btSoftBody22DeformableRigidContactERK19btContactSolverInfo(ptr noundef nonnull align 8 dereferenceable(96) %0, ptr noundef nonnull align 8 dereferenceable(848) %1, ptr noundef nonnull align 4 dereferenceable(128) %2) unnamed_addr #2 align 2 personality ptr @__gxx_personality_v0 {
  %4 = alloca ptr, align 8
  %5 = alloca ptr, align 8
  %6 = alloca ptr, align 8
  %7 = alloca ptr, align 8
  %8 = alloca i32, align 4
  store ptr %0, ptr %4, align 8, !tbaa !98
  store ptr %1, ptr %5, align 8, !tbaa !100
  store ptr %2, ptr %6, align 8, !tbaa !16
  %9 = load ptr, ptr %4, align 8
  %10 = load ptr, ptr %5, align 8, !tbaa !100
  %11 = getelementptr inbounds nuw %"class.btSoftBody::DeformableRigidContact", ptr %10, i32 0, i32 0
  %12 = getelementptr inbounds nuw %"struct.btSoftBody::sCti", ptr %11, i32 0, i32 1
  %13 = load ptr, ptr %6, align 8, !tbaa !16
  call void @_ZN29btDeformableContactConstraintC2ERK9btVector3RK19btContactSolverInfo(ptr noundef nonnull align 8 dereferenceable(40) %9, ptr noundef nonnull align 4 dereferenceable(16) %12, ptr noundef nonnull align 4 dereferenceable(128) %13)
  store ptr getelementptr inbounds inrange(-16, 88) ({ [13 x ptr] }, ptr @_ZTV34btDeformableRigidContactConstraint, i32 0, i32 0, i32 2), ptr %9, align 8, !tbaa !18
  %14 = getelementptr inbounds nuw %class.btDeformableRigidContactConstraint, ptr %9, i32 0, i32 1
  invoke void @_ZN9btVector3C2Ev(ptr noundef nonnull align 4 dereferenceable(16) %14)
          to label %15 unwind label %31

15:                                               ; preds = %3
  %16 = getelementptr inbounds nuw %class.btDeformableRigidContactConstraint, ptr %9, i32 0, i32 2
  invoke void @_ZN9btVector3C2Ev(ptr noundef nonnull align 4 dereferenceable(16) %16)
          to label %17 unwind label %31

17:                                               ; preds = %15
  %18 = getelementptr inbounds nuw %class.btDeformableRigidContactConstraint, ptr %9, i32 0, i32 6
  %19 = load ptr, ptr %5, align 8, !tbaa !100
  store ptr %19, ptr %18, align 8, !tbaa !102
  %20 = getelementptr inbounds nuw %class.btDeformableRigidContactConstraint, ptr %9, i32 0, i32 1
  invoke void @_ZN9btVector37setZeroEv(ptr noundef nonnull align 4 dereferenceable(16) %20)
          to label %21 unwind label %31

21:                                               ; preds = %17
  %22 = getelementptr inbounds nuw %class.btDeformableRigidContactConstraint, ptr %9, i32 0, i32 2
  invoke void @_ZN9btVector37setZeroEv(ptr noundef nonnull align 4 dereferenceable(16) %22)
          to label %23 unwind label %31

23:                                               ; preds = %21
  %24 = load ptr, ptr %5, align 8, !tbaa !100
  %25 = getelementptr inbounds nuw %"class.btSoftBody::DeformableRigidContact", ptr %24, i32 0, i32 0
  %26 = getelementptr inbounds nuw %"struct.btSoftBody::sCti", ptr %25, i32 0, i32 3
  %27 = load float, ptr %26, align 8, !tbaa !104
  %28 = getelementptr inbounds nuw %class.btDeformableRigidContactConstraint, ptr %9, i32 0, i32 3
  store float %27, ptr %28, align 8, !tbaa !105
  %29 = getelementptr inbounds nuw %class.btDeformableRigidContactConstraint, ptr %9, i32 0, i32 4
  store float 0.000000e+00, ptr %29, align 4, !tbaa !106
  %30 = getelementptr inbounds nuw %class.btDeformableRigidContactConstraint, ptr %9, i32 0, i32 5
  store i8 0, ptr %30, align 8, !tbaa !107
  ret void

31:                                               ; preds = %21, %17, %15, %3
  %32 = landingpad { ptr, i32 }
          cleanup
  %33 = extractvalue { ptr, i32 } %32, 0
  store ptr %33, ptr %7, align 8
  %34 = extractvalue { ptr, i32 } %32, 1
  store i32 %34, ptr %8, align 4
  call void @_ZN29btDeformableContactConstraintD2Ev(ptr noundef nonnull align 8 dereferenceable(40) %9) #13
  br label %35

35:                                               ; preds = %31
  %36 = load ptr, ptr %7, align 8
  %37 = load i32, ptr %8, align 4
  %38 = insertvalue { ptr, i32 } poison, ptr %36, 0
  %39 = insertvalue { ptr, i32 } %38, i32 %37, 1
  resume { ptr, i32 } %39
}

; Function Attrs: mustprogress uwtable
define dso_local void @_ZN38btDeformableFaceRigidContactConstraintC2ERKN10btSoftBody26DeformableFaceRigidContactERK19btContactSolverInfob(ptr noundef nonnull align 8 dereferenceable(105) %0, ptr noundef nonnull align 8 dereferenceable(904) %1, ptr noundef nonnull align 4 dereferenceable(128) %2, i1 noundef zeroext %3) unnamed_addr #2 align 2 {
  %5 = alloca ptr, align 8
  %6 = alloca ptr, align 8
  %7 = alloca ptr, align 8
  %8 = alloca i8, align 1
  store ptr %0, ptr %5, align 8, !tbaa !129
  store ptr %1, ptr %6, align 8, !tbaa !131
  store ptr %2, ptr %7, align 8, !tbaa !16
  %9 = zext i1 %3 to i8
  store i8 %9, ptr %8, align 1, !tbaa !133
  %10 = load ptr, ptr %5, align 8
  %11 = load ptr, ptr %6, align 8, !tbaa !131
  %12 = load ptr, ptr %7, align 8, !tbaa !16
  call void @_ZN34btDeformableRigidContactConstraintC2ERKN10btSoftBody22DeformableRigidContactERK19btContactSolverInfo(ptr noundef nonnull align 8 dereferenceable(96) %10, ptr noundef nonnull align 8 dereferenceable(848) %11, ptr noundef nonnull align 4 dereferenceable(128) %12)
  store ptr getelementptr inbounds inrange(-16, 88) ({ [13 x ptr] }, ptr @_ZTV38btDeformableFaceRigidContactConstraint, i32 0, i32 0, i32 2), ptr %10, align 8, !tbaa !18
  %13 = getelementptr inbounds nuw %class.btDeformableFaceRigidContactConstraint, ptr %10, i32 0, i32 1
  %14 = load ptr, ptr %6, align 8, !tbaa !131
  %15 = getelementptr inbounds nuw %"class.btSoftBody::DeformableFaceRigidContact", ptr %14, i32 0, i32 1
  %16 = load ptr, ptr %15, align 8, !tbaa !134
  store ptr %16, ptr %13, align 8, !tbaa !137
  %17 = getelementptr inbounds nuw %class.btDeformableFaceRigidContactConstraint, ptr %10, i32 0, i32 2
  %18 = load i8, ptr %8, align 1, !tbaa !133, !range !32, !noundef !33
  %19 = trunc i8 %18 to i1
  %20 = zext i1 %19 to i8
  store i8 %20, ptr %17, align 8, !tbaa !139
  ret void
}