; Function Attrs: mustprogress nofree norecurse nosync nounwind willreturn memory(argmem: readwrite) uwtable
define dso_local void @_ZN38btDeformableFaceRigidContactConstraintC2ERKN10btSoftBody26DeformableFaceRigidContactERK19btContactSolverInfob(ptr noundef nonnull writeonly align 8 captures(none) dereferenceable(105) initializes((0, 9), (16, 81), (88, 105)) %0, ptr noundef nonnull align 8 dereferenceable(904) %1, ptr noundef nonnull align 4 dereferenceable(128) %2, i1 noundef zeroext %3) unnamed_addr #0 align 2 personality ptr @__gxx_personality_v0 {
  %5 = zext i1 %3 to i8
  %6 = getelementptr inbounds nuw i8, ptr %1, i64 8
  store ptr getelementptr inbounds nuw inrange(-16, 64) (i8, ptr @_ZTV29btDeformableContactConstraint, i64 16), ptr %0, align 8, !tbaa !4
  %7 = getelementptr inbounds nuw i8, ptr %0, i64 8
  store i8 0, ptr %7, align 8, !tbaa !7
  %8 = getelementptr inbounds nuw i8, ptr %0, i64 16
  store ptr %2, ptr %8, align 8, !tbaa !14
  %9 = getelementptr inbounds nuw i8, ptr %0, i64 24
  tail call void @llvm.memcpy.p0.p0.i64(ptr noundef nonnull align 8 dereferenceable(16) %9, ptr noundef nonnull align 8 dereferenceable(16) %6, i64 16, i1 false), !tbaa.struct !15
  %10 = getelementptr inbounds nuw i8, ptr %0, i64 40
  %11 = getelementptr inbounds nuw i8, ptr %0, i64 88
  store ptr %1, ptr %11, align 8, !tbaa !77
  %12 = getelementptr inbounds nuw i8, ptr %1, i64 40
  tail call void @llvm.memset.p0.i64(ptr noundef nonnull align 8 dereferenceable(32) %10, i8 0, i64 32, i1 false)
  %13 = load float, ptr %12, align 8, !tbaa !80
  %14 = getelementptr inbounds nuw i8, ptr %0, i64 72
  store float %13, ptr %14, align 8, !tbaa !81
  %15 = getelementptr inbounds nuw i8, ptr %0, i64 76
  store float 0.000000e+00, ptr %15, align 4, !tbaa !82
  %16 = getelementptr inbounds nuw i8, ptr %0, i64 80
  store i8 0, ptr %16, align 8, !tbaa !83
  store ptr getelementptr inbounds nuw inrange(-16, 88) (i8, ptr @_ZTV38btDeformableFaceRigidContactConstraint, i64 16), ptr %0, align 8, !tbaa !4
  %17 = getelementptr inbounds nuw i8, ptr %0, i64 96
  %18 = getelementptr inbounds nuw i8, ptr %1, i64 848
  %19 = load ptr, ptr %18, align 8, !tbaa !103
  store ptr %19, ptr %17, align 8, !tbaa !106
  %20 = getelementptr inbounds nuw i8, ptr %0, i64 104
  store i8 %5, ptr %20, align 8, !tbaa !108
  ret void
}